
firmware/test_simple_assembly/test_simple_assembly.elf:     file format elf32-littleriscv


Disassembly of section .text:

00000000 <_start>:
   0:	4081                	li	ra,0
   2:	4101                	li	sp,0
   4:	4181                	li	gp,0
   6:	4201                	li	tp,0
   8:	4281                	li	t0,0
   a:	4301                	li	t1,0
   c:	4381                	li	t2,0
   e:	4401                	li	s0,0
  10:	4481                	li	s1,0
  12:	4501                	li	a0,0
  14:	4581                	li	a1,0
  16:	4601                	li	a2,0
  18:	4681                	li	a3,0
  1a:	4701                	li	a4,0
  1c:	4781                	li	a5,0
  1e:	4801                	li	a6,0
  20:	4881                	li	a7,0
  22:	4901                	li	s2,0
  24:	4981                	li	s3,0
  26:	4a01                	li	s4,0
  28:	4a81                	li	s5,0
  2a:	4b01                	li	s6,0
  2c:	4b81                	li	s7,0
  2e:	4c01                	li	s8,0
  30:	4c81                	li	s9,0
  32:	4d01                	li	s10,0
  34:	4d81                	li	s11,0
  36:	4e01                	li	t3,0
  38:	4e81                	li	t4,0
  3a:	4f01                	li	t5,0
  3c:	4f81                	li	t6,0
  3e:	20010137          	lui	sp,0x20010
  42:	1141                	addi	sp,sp,-16
  44:	a019                	j	4a <main>

00000046 <__fsbl_goto_main>:
  46:	00050067          	jr	a0

0000004a <main>:
  4a:	00c5f503          	xc.ldr.b	a0,a1(a2)
  4e:	02c5f503          	xc.ldr.h	a0,a1(a2)
  52:	04c5f503          	xc.ldr.w	a0,a1(a2)
  56:	08c5f503          	xc.ldr.bu	a0,a1(a2)
  5a:	0ac5f503          	xc.ldr.hu	a0,a1(a2)
  5e:	50c5c023          	xc.str.b	a0,a1(a2)
  62:	50c5c0a3          	xc.str.h	a0,a1(a2)
  66:	50c5c123          	xc.str.w	a0,a1(a2)
  6a:	74d64523          	xc.mmul.3	(# internal error, undefined modifier (X)
  6e:	74d645a3          	xc.macc.1	(# internal error, undefined modifier (X)
  72:	76d64523          	xc.madd.3	(# internal error, undefined modifier (X)
  76:	76d655a3          	xc.msub.3	(# internal error, undefined modifier (X)
  7a:	70d65523          	xc.mror	(# internal error, undefined modifier (X)
  7e:	00300573          	xc.rngtest	a0
  82:	00500573          	xc.rngsamp	a0
  86:	00750073          	xc.rngseed	a0
  8a:	62c5e533          	xc.lut	a0,a1,a2
  8e:	e4c5e533          	xc.bop	a0,a1,a2,# internal error, undefined modifier (X)
  92:	c2c58573          	xc.padd	# internal error, undefined modifier (X)
  96:	c4c58573          	xc.psub	# internal error, undefined modifier (X)
  9a:	c6c58573          	xc.pror	# internal error, undefined modifier (X)
  9e:	c8c58573          	xc.psll	# internal error, undefined modifier (X)
  a2:	cac58573          	xc.psrl	# internal error, undefined modifier (X)
  a6:	f0167503          	xc.pror.i	# internal error, undefined modifier (X)
  aa:	ec167503          	xc.psll.i	# internal error, undefined modifier (X)
  ae:	e8167503          	xc.psrl.i	# internal error, undefined modifier (X)
  b2:	ccc58573          	xc.pmul.l	# internal error, undefined modifier (X)
  b6:	cec58573          	xc.pmul.h	# internal error, undefined modifier (X)
  ba:	d0c58533          	xc.pclmul.l	# internal error, undefined modifier (X)
  be:	d2c58533          	xc.pclmul.h	# internal error, undefined modifier (X)
  c2:	60b54223          	xc.scatter.b	a0,a1,a2
  c6:	60b542a3          	xc.scatter.h	a0,a1,a2
  ca:	34c5e513          	ori	a0,a1,844
  ce:	36c5e513          	ori	a0,a1,876
  d2:	1ac5f503          	xc.aessub.enc	a0,a1,a2
  d6:	1cc5f503          	xc.aessub.encrot	a0,a1,a2
  da:	1ec5f503          	xc.aessub.dec	a0,a1,a2
  de:	20c5f503          	xc.aessub.decrot	a0,a1,a2
  e2:	22c5f503          	xc.aesmix.enc	a0,a1,a2
  e6:	24c5f503          	xc.aesmix.dec	a0,a1,a2
  ea:	0e05f503          	xc.sha256.s0	a0,a1
  ee:	0e15f503          	xc.sha256.s1	a0,a1
  f2:	0e25f503          	xc.sha256.s2	a0,a1
  f6:	0e35f503          	xc.sha256.s3	a0,a1
  fa:	10c5f503          	xc.sha3.xy	a0,a1,a2,# internal error, undefined modifier (X)
  fe:	12c5f503          	xc.sha3.x1	a0,a1,a2,# internal error, undefined modifier (X)
 102:	14c5f503          	xc.sha3.x2	a0,a1,a2,# internal error, undefined modifier (X)
 106:	16c5f503          	xc.sha3.x4	a0,a1,a2,# internal error, undefined modifier (X)
 10a:	18c5f503          	xc.sha3.yx	a0,a1,a2,# internal error, undefined modifier (X)
